target datalayout = "e-m:e-p270:32:32-p271:32:32-p272:64:64-i64:64-i128:128-f80:128-n8:16:32:64-S128"
target triple = "x86_64-pc-linux-gnu"

%struct.cs_sparse = type { i32, i32, i32, ptr, ptr, ptr, i32 }

; Function Attrs: nounwind uwtable
define ptr @cs_spfree(ptr noundef %0) #0 {
  %2 = alloca ptr, align 8
  %3 = alloca ptr, align 8
  store ptr %0, ptr %3, align 8, !tbaa !7
  %4 = load ptr, ptr %3, align 8, !tbaa !7
  %5 = icmp ne ptr %4, null
  br i1 %5, label %7, label %6

6:                                                ; preds = %1
  store ptr null, ptr %2, align 8
  br label %22

7:                                                ; preds = %1
  %8 = load ptr, ptr %3, align 8, !tbaa !7
  %9 = getelementptr inbounds nuw %struct.cs_sparse, ptr %8, i32 0, i32 3
  %10 = load ptr, ptr %9, align 8, !tbaa !17
  %11 = call ptr @cs_free(ptr noundef %10)
  %12 = load ptr, ptr %3, align 8, !tbaa !7
  %13 = getelementptr inbounds nuw %struct.cs_sparse, ptr %12, i32 0, i32 4
  %14 = load ptr, ptr %13, align 8, !tbaa !18
  %15 = call ptr @cs_free(ptr noundef %14)
  %16 = load ptr, ptr %3, align 8, !tbaa !7
  %17 = getelementptr inbounds nuw %struct.cs_sparse, ptr %16, i32 0, i32 5
  %18 = load ptr, ptr %17, align 8, !tbaa !19
  %19 = call ptr @cs_free(ptr noundef %18)
  %20 = load ptr, ptr %3, align 8, !tbaa !7
  %21 = call ptr @cs_free(ptr noundef %20)
  store ptr %21, ptr %2, align 8
  br label %22

22:                                               ; preds = %7, %6
  %23 = load ptr, ptr %2, align 8
  ret ptr %23
}

; Function Attrs: nounwind uwtable
define ptr @cs_spalloc(i32 noundef %0, i32 noundef %1, i32 noundef %2, i32 noundef %3, i32 noundef %4) #0 {
  %6 = alloca ptr, align 8
  %7 = alloca i32, align 4
  %8 = alloca i32, align 4
  %9 = alloca i32, align 4
  %10 = alloca i32, align 4
  %11 = alloca i32, align 4
  %12 = alloca ptr, align 8
  %13 = alloca i32, align 4
  store i32 %0, ptr %7, align 4, !tbaa !3
  store i32 %1, ptr %8, align 4, !tbaa !3
  store i32 %2, ptr %9, align 4, !tbaa !3
  store i32 %3, ptr %10, align 4, !tbaa !3
  store i32 %4, ptr %11, align 4, !tbaa !3
  call void @llvm.lifetime.start.p0(i64 8, ptr %12) #3
  %14 = call ptr @cs_calloc(i32 noundef 1, i64 noundef 48)
  store ptr %14, ptr %12, align 8, !tbaa !7
  %15 = load ptr, ptr %12, align 8, !tbaa !7
  %16 = icmp ne ptr %15, null
  br i1 %16, label %18, label %17

17:                                               ; preds = %5
  store ptr null, ptr %6, align 8
  store i32 1, ptr %13, align 4
  br label %89

18:                                               ; preds = %5
  %19 = load i32, ptr %7, align 4, !tbaa !3
  %20 = load ptr, ptr %12, align 8, !tbaa !7
  %21 = getelementptr inbounds nuw %struct.cs_sparse, ptr %20, i32 0, i32 1
  store i32 %19, ptr %21, align 4, !tbaa !10
  %22 = load i32, ptr %8, align 4, !tbaa !3
  %23 = load ptr, ptr %12, align 8, !tbaa !7
  %24 = getelementptr inbounds nuw %struct.cs_sparse, ptr %23, i32 0, i32 2
  store i32 %22, ptr %24, align 8, !tbaa !14
  %25 = load i32, ptr %9, align 4, !tbaa !3
  %26 = icmp sgt i32 %25, 1
  br i1 %26, label %27, label %29

27:                                               ; preds = %18
  %28 = load i32, ptr %9, align 4, !tbaa !3
  br label %30

29:                                               ; preds = %18
  br label %30

30:                                               ; preds = %29, %27
  %31 = phi i32 [ %28, %27 ], [ 1, %29 ]
  store i32 %31, ptr %9, align 4, !tbaa !3
  %32 = load ptr, ptr %12, align 8, !tbaa !7
  %33 = getelementptr inbounds nuw %struct.cs_sparse, ptr %32, i32 0, i32 0
  store i32 %31, ptr %33, align 8, !tbaa !15
  %34 = load i32, ptr %11, align 4, !tbaa !3
  %35 = icmp ne i32 %34, 0
  %36 = select i1 %35, i32 0, i32 -1
  %37 = load ptr, ptr %12, align 8, !tbaa !7
  %38 = getelementptr inbounds nuw %struct.cs_sparse, ptr %37, i32 0, i32 6
  store i32 %36, ptr %38, align 8, !tbaa !16
  %39 = load i32, ptr %11, align 4, !tbaa !3
  %40 = icmp ne i32 %39, 0
  br i1 %40, label %41, label %43

41:                                               ; preds = %30
  %42 = load i32, ptr %9, align 4, !tbaa !3
  br label %46

43:                                               ; preds = %30
  %44 = load i32, ptr %8, align 4, !tbaa !3
  %45 = add nsw i32 %44, 1
  br label %46

46:                                               ; preds = %43, %41
  %47 = phi i32 [ %42, %41 ], [ %45, %43 ]
  %48 = call ptr @cs_malloc(i32 noundef %47, i64 noundef 4)
  %49 = load ptr, ptr %12, align 8, !tbaa !7
  %50 = getelementptr inbounds nuw %struct.cs_sparse, ptr %49, i32 0, i32 3
  store ptr %48, ptr %50, align 8, !tbaa !17
  %51 = load i32, ptr %9, align 4, !tbaa !3
  %52 = call ptr @cs_malloc(i32 noundef %51, i64 noundef 4)
  %53 = load ptr, ptr %12, align 8, !tbaa !7
  %54 = getelementptr inbounds nuw %struct.cs_sparse, ptr %53, i32 0, i32 4
  store ptr %52, ptr %54, align 8, !tbaa !18
  %55 = load i32, ptr %10, align 4, !tbaa !3
  %56 = icmp ne i32 %55, 0
  br i1 %56, label %57, label %60

57:                                               ; preds = %46
  %58 = load i32, ptr %9, align 4, !tbaa !3
  %59 = call ptr @cs_malloc(i32 noundef %58, i64 noundef 8)
  br label %61

60:                                               ; preds = %46
  br label %61

61:                                               ; preds = %60, %57
  %62 = phi ptr [ %59, %57 ], [ null, %60 ]
  %63 = load ptr, ptr %12, align 8, !tbaa !7
  %64 = getelementptr inbounds nuw %struct.cs_sparse, ptr %63, i32 0, i32 5
  store ptr %62, ptr %64, align 8, !tbaa !19
  %65 = load ptr, ptr %12, align 8, !tbaa !7
  %66 = getelementptr inbounds nuw %struct.cs_sparse, ptr %65, i32 0, i32 3
  %67 = load ptr, ptr %66, align 8, !tbaa !17
  %68 = icmp ne ptr %67, null
  br i1 %68, label %69, label %82

69:                                               ; preds = %61
  %70 = load ptr, ptr %12, align 8, !tbaa !7
  %71 = getelementptr inbounds nuw %struct.cs_sparse, ptr %70, i32 0, i32 4
  %72 = load ptr, ptr %71, align 8, !tbaa !18
  %73 = icmp ne ptr %72, null
  br i1 %73, label %74, label %82

74:                                               ; preds = %69
  %75 = load i32, ptr %10, align 4, !tbaa !3
  %76 = icmp ne i32 %75, 0
  br i1 %76, label %77, label %85

77:                                               ; preds = %74
  %78 = load ptr, ptr %12, align 8, !tbaa !7
  %79 = getelementptr inbounds nuw %struct.cs_sparse, ptr %78, i32 0, i32 5
  %80 = load ptr, ptr %79, align 8, !tbaa !19
  %81 = icmp ne ptr %80, null
  br i1 %81, label %85, label %82

82:                                               ; preds = %77, %69, %61
  %83 = load ptr, ptr %12, align 8, !tbaa !7
  %84 = call ptr @cs_spfree(ptr noundef %83)
  br label %87

85:                                               ; preds = %77, %74
  %86 = load ptr, ptr %12, align 8, !tbaa !7
  br label %87

87:                                               ; preds = %85, %82
  %88 = phi ptr [ %84, %82 ], [ %86, %85 ]
  store ptr %88, ptr %6, align 8
  store i32 1, ptr %13, align 4
  br label %89

89:                                               ; preds = %87, %17
  call void @llvm.lifetime.end.p0(i64 8, ptr %12) #3
  %90 = load ptr, ptr %6, align 8
  ret ptr %90
}