; Function Attrs: nounwind uwtable
define ptr @cs_spalloc(i32 noundef %0, i32 noundef %1, i32 noundef %2, i32 noundef %3, i32 noundef %4) local_unnamed_addr #0 {
  %6 = tail call ptr @cs_calloc(i32 noundef 1, i64 noundef 48) #4
  %.not = icmp eq ptr %6, null
  br i1 %.not, label %33, label %7

7:                                                ; preds = %5
  %8 = getelementptr inbounds nuw i8, ptr %6, i64 4
  store i32 %0, ptr %8, align 4, !tbaa !3
  %9 = getelementptr inbounds nuw i8, ptr %6, i64 8
  store i32 %1, ptr %9, align 8, !tbaa !11
  %10 = tail call i32 @llvm.smax.i32(i32 %2, i32 1)
  store i32 %10, ptr %6, align 8, !tbaa !12
  %.not26 = icmp eq i32 %4, 0
  %11 = sext i1 %.not26 to i32
  %12 = getelementptr inbounds nuw i8, ptr %6, i64 40
  store i32 %11, ptr %12, align 8, !tbaa !13
  %13 = add nsw i32 %1, 1
  %14 = select i1 %.not26, i32 %13, i32 %10
  %15 = tail call ptr @cs_malloc(i32 noundef %14, i64 noundef 4) #4
  %16 = getelementptr inbounds nuw i8, ptr %6, i64 16
  store ptr %15, ptr %16, align 8, !tbaa !14
  %17 = tail call ptr @cs_malloc(i32 noundef %10, i64 noundef 4) #4
  %18 = getelementptr inbounds nuw i8, ptr %6, i64 24
  store ptr %17, ptr %18, align 8, !tbaa !15
  %.not27 = icmp ne i32 %3, 0
  br i1 %.not27, label %19, label %21

19:                                               ; preds = %7
  %20 = tail call ptr @cs_malloc(i32 noundef %10, i64 noundef 8) #4
  br label %21

21:                                               ; preds = %7, %19
  %22 = phi ptr [ %20, %19 ], [ null, %7 ]
  %23 = getelementptr inbounds nuw i8, ptr %6, i64 32
  store ptr %22, ptr %23, align 8, !tbaa !16
  %24 = load ptr, ptr %16, align 8, !tbaa !14
  %.not28 = icmp eq ptr %24, null
  br i1 %.not28, label %cs_spfree.exit, label %25

25:                                               ; preds = %21
  %26 = load ptr, ptr %18, align 8, !tbaa !15
  %.not29 = icmp eq ptr %26, null
  %.not30 = icmp eq ptr %22, null
  %or.cond = select i1 %.not27, i1 %.not30, i1 false
  %or.cond31 = select i1 %.not29, i1 true, i1 %or.cond
  br i1 %or.cond31, label %cs_spfree.exit, label %33

cs_spfree.exit:                                   ; preds = %25, %21
  %27 = tail call ptr @cs_free(ptr noundef %24) #4
  %28 = load ptr, ptr %18, align 8, !tbaa !15
  %29 = tail call ptr @cs_free(ptr noundef %28) #4
  %30 = load ptr, ptr %23, align 8, !tbaa !16
  %31 = tail call ptr @cs_free(ptr noundef %30) #4
  %32 = tail call ptr @cs_free(ptr noundef nonnull %6) #4
  br label %33

33:                                               ; preds = %25, %cs_spfree.exit, %5
  %.0 = phi ptr [ null, %5 ], [ %32, %cs_spfree.exit ], [ %6, %25 ]
  ret ptr %.0
}